target datalayout = "e-m:e-p270:32:32-p271:32:32-p272:64:64-i64:64-i128:128-f80:128-n8:16:32:64-S128"
target triple = "x86_64-pc-linux-gnu"

%struct.CMajEnvVPSC = type { ptr, i32, i32, i32, ptr, i32, i32, ptr, ptr, ptr, ptr, ptr, ptr }

; Function Attrs: nounwind uwtable
define void @removeoverlaps(i32 noundef %0, ptr noundef %1, ptr noundef %2) #0 {
  %4 = alloca i32, align 4
  %5 = alloca ptr, align 8
  %6 = alloca ptr, align 8
  %7 = alloca i32, align 4
  %8 = alloca ptr, align 8
  store i32 %0, ptr %4, align 4, !tbaa !10
  store ptr %1, ptr %5, align 8, !tbaa !106
  store ptr %2, ptr %6, align 8, !tbaa !50
  call void @llvm.lifetime.start.p0(i64 4, ptr %7) #9
  call void @llvm.lifetime.start.p0(i64 8, ptr %8) #9
  %9 = load i32, ptr %4, align 4, !tbaa !10
  %10 = load ptr, ptr %6, align 8, !tbaa !50
  %11 = call ptr @initCMajVPSC(i32 noundef %9, ptr noundef null, ptr noundef null, ptr noundef %10, i32 noundef 0)
  store ptr %11, ptr %8, align 8, !tbaa !3
  %12 = load ptr, ptr %8, align 8, !tbaa !3
  %13 = load ptr, ptr %5, align 8, !tbaa !106
  %14 = load ptr, ptr %6, align 8, !tbaa !50
  call void @generateNonoverlapConstraints(ptr noundef %12, float noundef 1.000000e+00, ptr noundef %13, i32 noundef 0, i1 noundef zeroext true, ptr noundef %14)
  %15 = load ptr, ptr %8, align 8, !tbaa !3
  %16 = getelementptr inbounds nuw %struct.CMajEnvVPSC, ptr %15, i32 0, i32 9
  %17 = load ptr, ptr %16, align 8, !tbaa !32
  call void @solveVPSC(ptr noundef %17)
  store i32 0, ptr %7, align 4, !tbaa !10
  br label %18

18:                                               ; preds = %38, %3
  %19 = load i32, ptr %7, align 4, !tbaa !10
  %20 = load i32, ptr %4, align 4, !tbaa !10
  %21 = icmp slt i32 %19, %20
  br i1 %21, label %22, label %41

22:                                               ; preds = %18
  %23 = load ptr, ptr %8, align 8, !tbaa !3
  %24 = getelementptr inbounds nuw %struct.CMajEnvVPSC, ptr %23, i32 0, i32 4
  %25 = load ptr, ptr %24, align 8, !tbaa !25
  %26 = load i32, ptr %7, align 4, !tbaa !10
  %27 = sext i32 %26 to i64
  %28 = getelementptr inbounds ptr, ptr %25, i64 %27
  %29 = load ptr, ptr %28, align 8, !tbaa !26
  %30 = call double @getVariablePos(ptr noundef %29)
  %31 = fptrunc double %30 to float
  %32 = load ptr, ptr %5, align 8, !tbaa !106
  %33 = getelementptr inbounds ptr, ptr %32, i64 0
  %34 = load ptr, ptr %33, align 8, !tbaa !8
  %35 = load i32, ptr %7, align 4, !tbaa !10
  %36 = sext i32 %35 to i64
  %37 = getelementptr inbounds float, ptr %34, i64 %36
  store float %31, ptr %37, align 4, !tbaa !28
  br label %38

38:                                               ; preds = %22
  %39 = load i32, ptr %7, align 4, !tbaa !10
  %40 = add nsw i32 %39, 1
  store i32 %40, ptr %7, align 4, !tbaa !10
  br label %18, !llvm.loop !132

41:                                               ; preds = %18
  %42 = load ptr, ptr %8, align 8, !tbaa !3
  %43 = load ptr, ptr %5, align 8, !tbaa !106
  %44 = load ptr, ptr %6, align 8, !tbaa !50
  call void @generateNonoverlapConstraints(ptr noundef %42, float noundef 1.000000e+00, ptr noundef %43, i32 noundef 1, i1 noundef zeroext false, ptr noundef %44)
  %45 = load ptr, ptr %8, align 8, !tbaa !3
  %46 = getelementptr inbounds nuw %struct.CMajEnvVPSC, ptr %45, i32 0, i32 9
  %47 = load ptr, ptr %46, align 8, !tbaa !32
  call void @solveVPSC(ptr noundef %47)
  store i32 0, ptr %7, align 4, !tbaa !10
  br label %48

48:                                               ; preds = %68, %41
  %49 = load i32, ptr %7, align 4, !tbaa !10
  %50 = load i32, ptr %4, align 4, !tbaa !10
  %51 = icmp slt i32 %49, %50
  br i1 %51, label %52, label %71

52:                                               ; preds = %48
  %53 = load ptr, ptr %8, align 8, !tbaa !3
  %54 = getelementptr inbounds nuw %struct.CMajEnvVPSC, ptr %53, i32 0, i32 4
  %55 = load ptr, ptr %54, align 8, !tbaa !25
  %56 = load i32, ptr %7, align 4, !tbaa !10
  %57 = sext i32 %56 to i64
  %58 = getelementptr inbounds ptr, ptr %55, i64 %57
  %59 = load ptr, ptr %58, align 8, !tbaa !26
  %60 = call double @getVariablePos(ptr noundef %59)
  %61 = fptrunc double %60 to float
  %62 = load ptr, ptr %5, align 8, !tbaa !106
  %63 = getelementptr inbounds ptr, ptr %62, i64 1
  %64 = load ptr, ptr %63, align 8, !tbaa !8
  %65 = load i32, ptr %7, align 4, !tbaa !10
  %66 = sext i32 %65 to i64
  %67 = getelementptr inbounds float, ptr %64, i64 %66
  store float %61, ptr %67, align 4, !tbaa !28
  br label %68

68:                                               ; preds = %52
  %69 = load i32, ptr %7, align 4, !tbaa !10
  %70 = add nsw i32 %69, 1
  store i32 %70, ptr %7, align 4, !tbaa !10
  br label %48, !llvm.loop !133

71:                                               ; preds = %48
  %72 = load ptr, ptr %8, align 8, !tbaa !3
  call void @deleteCMajEnvVPSC(ptr noundef %72)
  call void @llvm.lifetime.end.p0(i64 8, ptr %8) #9
  call void @llvm.lifetime.end.p0(i64 4, ptr %7) #9
  ret void
}