; Function Attrs: nounwind uwtable
define void @removeoverlaps(i32 noundef %0, ptr noundef readonly captures(none) %1, ptr noundef readonly captures(none) %2) local_unnamed_addr #0 {
  %4 = tail call ptr @initCMajVPSC(i32 noundef %0, ptr noundef null, ptr noundef null, ptr noundef %2, i32 noundef 0)
  tail call void @generateNonoverlapConstraints(ptr noundef %4, float noundef 1.000000e+00, ptr noundef %1, i32 noundef 0, i1 noundef zeroext true, ptr noundef %2)
  %5 = getelementptr inbounds nuw i8, ptr %4, i64 56
  %6 = load ptr, ptr %5, align 8, !tbaa !19
  tail call void @solveVPSC(ptr noundef %6) #14
  %7 = icmp sgt i32 %0, 0
  br i1 %7, label %.lr.ph, label %._crit_edge29.critedge

.lr.ph:                                           ; preds = %3
  %8 = getelementptr inbounds nuw i8, ptr %4, i64 24
  %wide.trip.count = zext nneg i32 %0 to i64
  br label %9

9:                                                ; preds = %.lr.ph, %9
  %indvars.iv = phi i64 [ 0, %.lr.ph ], [ %indvars.iv.next, %9 ]
  %10 = load ptr, ptr %8, align 8, !tbaa !20
  %11 = getelementptr inbounds nuw ptr, ptr %10, i64 %indvars.iv
  %12 = load ptr, ptr %11, align 8, !tbaa !21
  %13 = tail call double @getVariablePos(ptr noundef %12) #14
  %14 = fptrunc double %13 to float
  %15 = load ptr, ptr %1, align 8, !tbaa !29
  %16 = getelementptr inbounds nuw float, ptr %15, i64 %indvars.iv
  store float %14, ptr %16, align 4, !tbaa !23
  %indvars.iv.next = add nuw nsw i64 %indvars.iv, 1
  %exitcond.not = icmp eq i64 %indvars.iv.next, %wide.trip.count
  br i1 %exitcond.not, label %._crit_edge, label %9, !llvm.loop !114

._crit_edge:                                      ; preds = %9
  tail call void @generateNonoverlapConstraints(ptr noundef nonnull %4, float noundef 1.000000e+00, ptr noundef nonnull %1, i32 noundef 1, i1 noundef zeroext false, ptr noundef %2)
  %17 = load ptr, ptr %5, align 8, !tbaa !19
  tail call void @solveVPSC(ptr noundef %17) #14
  %18 = getelementptr inbounds nuw i8, ptr %4, i64 24
  %19 = getelementptr inbounds nuw i8, ptr %1, i64 8
  %wide.trip.count34 = zext nneg i32 %0 to i64
  br label %20

20:                                               ; preds = %._crit_edge, %20
  %indvars.iv31 = phi i64 [ 0, %._crit_edge ], [ %indvars.iv.next32, %20 ]
  %21 = load ptr, ptr %18, align 8, !tbaa !20
  %22 = getelementptr inbounds nuw ptr, ptr %21, i64 %indvars.iv31
  %23 = load ptr, ptr %22, align 8, !tbaa !21
  %24 = tail call double @getVariablePos(ptr noundef %23) #14
  %25 = fptrunc double %24 to float
  %26 = load ptr, ptr %19, align 8, !tbaa !29
  %27 = getelementptr inbounds nuw float, ptr %26, i64 %indvars.iv31
  store float %25, ptr %27, align 4, !tbaa !23
  %indvars.iv.next32 = add nuw nsw i64 %indvars.iv31, 1
  %exitcond35.not = icmp eq i64 %indvars.iv.next32, %wide.trip.count34
  br i1 %exitcond35.not, label %._crit_edge29, label %20, !llvm.loop !115

._crit_edge29.critedge:                           ; preds = %3
  tail call void @generateNonoverlapConstraints(ptr noundef nonnull %4, float noundef 1.000000e+00, ptr noundef %1, i32 noundef 1, i1 noundef zeroext false, ptr noundef %2)
  %28 = load ptr, ptr %5, align 8, !tbaa !19
  tail call void @solveVPSC(ptr noundef %28) #14
  br label %._crit_edge29

._crit_edge29:                                    ; preds = %20, %._crit_edge29.critedge
  tail call void @deleteCMajEnvVPSC(ptr noundef nonnull %4)
  ret void
}